; Function Attrs: nounwind uwtable
define zeroext range(i8 0, 2) i8 @l_Array_anyMUnsafe_any___at___private_Lean_Elab_Tactic_Try_0__Lean_Elab_Tactic_Try_mkChainResult___spec__8(ptr noundef readonly captures(none) %0, i64 noundef %1, i64 noundef %2) local_unnamed_addr #0 {
  %.not26 = icmp eq i64 %1, %2
  br i1 %.not26, label %lean_dec.exit._crit_edge, label %.lr.ph

.lr.ph:                                           ; preds = %3
  %4 = getelementptr inbounds nuw i8, ptr %0, i64 24
  br label %7

5:                                                ; preds = %lean_dec.exit
  %6 = add i64 %.01427, 1
  %.not = icmp eq i64 %6, %2
  br i1 %.not, label %lean_dec.exit._crit_edge, label %7

7:                                                ; preds = %.lr.ph, %5
  %.01427 = phi i64 [ %1, %.lr.ph ], [ %6, %5 ]
  %8 = getelementptr inbounds nuw [0 x ptr], ptr %4, i64 0, i64 %.01427
  %9 = load ptr, ptr %8, align 8, !tbaa !4
  %10 = ptrtoint ptr %9 to i64
  %11 = and i64 %10, 1
  %.not.i19 = icmp eq i64 %11, 0
  br i1 %.not.i19, label %12, label %lean_array_uget.exit

12:                                               ; preds = %7
  %.val.i.i = load i32, ptr %9, align 4, !tbaa !8
  %13 = icmp sgt i32 %.val.i.i, 0
  br i1 %13, label %14, label %16, !prof !11

14:                                               ; preds = %12
  %15 = add nuw i32 %.val.i.i, 1
  store i32 %15, ptr %9, align 4, !tbaa !8
  br label %19

16:                                               ; preds = %12
  %.not.i.i = icmp eq i32 %.val.i.i, 0
  br i1 %.not.i.i, label %19, label %17

17:                                               ; preds = %16
  tail call void @lean_inc_ref_cold(ptr noundef nonnull %9) #5
  br label %19

lean_array_uget.exit:                             ; preds = %7
  %18 = tail call zeroext i8 @l_Array_isEmpty___rarg(ptr noundef %9) #5
  br label %lean_dec.exit

19:                                               ; preds = %14, %16, %17
  %20 = tail call zeroext i8 @l_Array_isEmpty___rarg(ptr noundef nonnull %9) #5
  %21 = load i32, ptr %9, align 4, !tbaa !8
  %22 = icmp sgt i32 %21, 1
  br i1 %22, label %23, label %25, !prof !11

23:                                               ; preds = %19
  %24 = add nsw i32 %21, -1
  store i32 %24, ptr %9, align 4, !tbaa !8
  br label %lean_dec.exit

25:                                               ; preds = %19
  %.not.i = icmp eq i32 %21, 0
  br i1 %.not.i, label %lean_dec.exit, label %26

26:                                               ; preds = %25
  tail call void @lean_dec_ref_cold(ptr noundef nonnull %9) #5
  br label %lean_dec.exit

lean_dec.exit:                                    ; preds = %26, %25, %23, %lean_array_uget.exit
  %27 = phi i8 [ %18, %lean_array_uget.exit ], [ %20, %23 ], [ %20, %25 ], [ %20, %26 ]
  %28 = icmp eq i8 %27, 0
  br i1 %28, label %5, label %lean_dec.exit._crit_edge

lean_dec.exit._crit_edge:                         ; preds = %5, %lean_dec.exit, %3
  %.2.ph = phi i8 [ 0, %3 ], [ 1, %lean_dec.exit ], [ 0, %5 ]
  ret i8 %.2.ph
}